(dp0
Vproject_steps
p1
(lp2
VCalculatorHttpServer
p3
aVContactsHttpServer
p4
asVproject_name
p5
VRest_Intro
p6
sVproject_directory
p7
VD:\u005cPILOT\u000aodejs_REST1
p8
sVlanguage
p9
Vjavascript
p10
sVproject_page
p11
Vhttp://mission-rnd.github.io/nodejs-rest.htm
p12
sVproject_status
p13
I0
sVproject_gitrepo
p14
Vhttps://github.com/mission-rnd/mrnd-nodejs-http
p15
sVproject_user
p16
Vjayadev_psk
p17
sVproject_validator
p18
Vjasmine-node --junitreport --captureExceptions spec/tests/
p19
s.